; Function Attrs: mustprogress uwtable
define hidden i64 @_ZNK7nanogui8CheckBox14preferred_sizeEP10NVGcontext(ptr noundef nonnull align 8 dereferenceable(216) %0, ptr noundef %1) unnamed_addr #0 align 2 {
_ZN7nanogui5ArrayIiLm2EEC2Ei.exit.critedge:
  %2 = getelementptr inbounds i8, ptr %0, i64 56
  br label %3

3:                                                ; preds = %3, %_ZN7nanogui5ArrayIiLm2EEC2Ei.exit.critedge
  %.not8.i.i = phi i1 [ true, %_ZN7nanogui5ArrayIiLm2EEC2Ei.exit.critedge ], [ false, %3 ]
  %.07.i.i = phi i64 [ 0, %_ZN7nanogui5ArrayIiLm2EEC2Ei.exit.critedge ], [ 1, %3 ]
  %4 = getelementptr inbounds [2 x i32], ptr %2, i64 0, i64 %.07.i.i
  %5 = load i32, ptr %4, align 4
  %.not.i.i = icmp eq i32 %5, 0
  %or.cond.i.i = and i1 %.not8.i.i, %.not.i.i
  br i1 %or.cond.i.i, label %3, label %_ZNK7nanogui5ArrayIiLm2EEneERKS1_.exit, !llvm.loop !5

_ZNK7nanogui5ArrayIiLm2EEneERKS1_.exit:           ; preds = %3
  br i1 %.not.i.i, label %8, label %6

6:                                                ; preds = %_ZNK7nanogui5ArrayIiLm2EEneERKS1_.exit
  %7 = load i64, ptr %2, align 8
  %.sroa.06.0.extract.trunc = trunc i64 %7 to i32
  %.sroa.3.0.extract.shift = lshr i64 %7, 32
  %.sroa.3.0.extract.trunc = trunc i64 %.sroa.3.0.extract.shift to i32
  br label %22

8:                                                ; preds = %_ZNK7nanogui5ArrayIiLm2EEneERKS1_.exit
  %9 = tail call noundef i32 @_ZNK7nanogui6Widget9font_sizeEv(ptr noundef nonnull align 8 dereferenceable(140) %0)
  %10 = sitofp i32 %9 to float
  tail call void @nvgFontSize(ptr noundef %1, float noundef %10)
  tail call void @nvgFontFace(ptr noundef %1, ptr noundef nonnull @.str)
  %11 = getelementptr inbounds i8, ptr %0, i64 144
  %12 = tail call noundef ptr @_ZNKSt7__cxx1112basic_stringIcSt11char_traitsIcESaIcEE5c_strEv(ptr noundef nonnull align 8 dereferenceable(32) %11) #11
  %13 = tail call float @nvgTextBounds(ptr noundef %1, float noundef 0.000000e+00, float noundef 0.000000e+00, ptr noundef %12, ptr noundef null, ptr noundef null)
  %14 = tail call noundef i32 @_ZNK7nanogui6Widget9font_sizeEv(ptr noundef nonnull align 8 dereferenceable(140) %0)
  %15 = sitofp i32 %14 to float
  %16 = tail call float @llvm.fmuladd.f32(float %15, float 0x3FFCCCCCC0000000, float %13)
  %17 = fptosi float %16 to i32
  %18 = tail call noundef i32 @_ZNK7nanogui6Widget9font_sizeEv(ptr noundef nonnull align 8 dereferenceable(140) %0)
  %19 = sitofp i32 %18 to float
  %20 = fmul float %19, 0x3FF4CCCCC0000000
  %21 = fptosi float %20 to i32
  br label %22

22:                                               ; preds = %8, %6
  %.sroa.3.0 = phi i32 [ %.sroa.3.0.extract.trunc, %6 ], [ %21, %8 ]
  %.sroa.06.0 = phi i32 [ %.sroa.06.0.extract.trunc, %6 ], [ %17, %8 ]
  %.sroa.3.0.insert.ext = zext i32 %.sroa.3.0 to i64
  %.sroa.3.0.insert.shift = shl nuw i64 %.sroa.3.0.insert.ext, 32
  %.sroa.06.0.insert.ext = zext i32 %.sroa.06.0 to i64
  %.sroa.06.0.insert.insert = or disjoint i64 %.sroa.3.0.insert.shift, %.sroa.06.0.insert.ext
  ret i64 %.sroa.06.0.insert.insert
}